target datalayout = "e-m:e-p270:32:32-p271:32:32-p272:64:64-i64:64-i128:128-f80:128-n8:16:32:64-S128"
target triple = "x86_64-pc-linux-gnu"

%struct.AVTXContext = type { i32, i32, ptr, ptr, ptr, ptr, [4 x ptr], i32, [4 x ptr], ptr, i32, i64, i32, float, double, ptr }

; Function Attrs: nounwind uwtable
define internal void @ff_tx_dctIII_double_c(ptr noundef %0, ptr noundef %1, ptr noundef %2, i64 noundef %3) #4 {
  %5 = alloca ptr, align 8
  %6 = alloca ptr, align 8
  %7 = alloca ptr, align 8
  %8 = alloca i64, align 8
  %9 = alloca ptr, align 8
  %10 = alloca ptr, align 8
  %11 = alloca i32, align 4
  %12 = alloca i32, align 4
  %13 = alloca ptr, align 8
  %14 = alloca double, align 8
  %15 = alloca double, align 8
  %16 = alloca i32, align 4
  %17 = alloca double, align 8
  %18 = alloca double, align 8
  %19 = alloca i32, align 4
  %20 = alloca double, align 8
  %21 = alloca double, align 8
  %22 = alloca double, align 8
  store ptr %0, ptr %5, align 8, !tbaa !17
  store ptr %1, ptr %6, align 8, !tbaa !8
  store ptr %2, ptr %7, align 8, !tbaa !8
  store i64 %3, ptr %8, align 8, !tbaa !30
  call void @llvm.lifetime.start.p0(i64 8, ptr %9) #10
  %23 = load ptr, ptr %6, align 8, !tbaa !8
  store ptr %23, ptr %9, align 8, !tbaa !38
  call void @llvm.lifetime.start.p0(i64 8, ptr %10) #10
  %24 = load ptr, ptr %7, align 8, !tbaa !8
  store ptr %24, ptr %10, align 8, !tbaa !38
  call void @llvm.lifetime.start.p0(i64 4, ptr %11) #10
  %25 = load ptr, ptr %5, align 8, !tbaa !17
  %26 = getelementptr inbounds nuw %struct.AVTXContext, ptr %25, i32 0, i32 0
  %27 = load i32, ptr %26, align 8, !tbaa !21
  store i32 %27, ptr %11, align 4, !tbaa !4
  call void @llvm.lifetime.start.p0(i64 4, ptr %12) #10
  %28 = load i32, ptr %11, align 4, !tbaa !4
  %29 = ashr i32 %28, 1
  store i32 %29, ptr %12, align 4, !tbaa !4
  call void @llvm.lifetime.start.p0(i64 8, ptr %13) #10
  %30 = load ptr, ptr %5, align 8, !tbaa !17
  %31 = getelementptr inbounds nuw %struct.AVTXContext, ptr %30, i32 0, i32 3
  %32 = load ptr, ptr %31, align 8, !tbaa !31
  store ptr %32, ptr %13, align 8, !tbaa !38
  call void @llvm.lifetime.start.p0(i64 8, ptr %14) #10
  call void @llvm.lifetime.start.p0(i64 8, ptr %15) #10
  %33 = load ptr, ptr %10, align 8, !tbaa !38
  %34 = load i32, ptr %11, align 4, !tbaa !4
  %35 = sub nsw i32 %34, 1
  %36 = sext i32 %35 to i64
  %37 = getelementptr inbounds double, ptr %33, i64 %36
  %38 = load double, ptr %37, align 8, !tbaa !29
  %39 = fmul nsz double 2.000000e+00, %38
  store double %39, ptr %15, align 8, !tbaa !29
  %40 = load double, ptr %15, align 8, !tbaa !29
  %41 = load ptr, ptr %10, align 8, !tbaa !38
  %42 = load i32, ptr %11, align 4, !tbaa !4
  %43 = sext i32 %42 to i64
  %44 = getelementptr inbounds double, ptr %41, i64 %43
  store double %40, ptr %44, align 8, !tbaa !29
  call void @llvm.lifetime.start.p0(i64 4, ptr %16) #10
  %45 = load i32, ptr %11, align 4, !tbaa !4
  %46 = sub nsw i32 %45, 2
  store i32 %46, ptr %16, align 4, !tbaa !4
  br label %47

47:                                               ; preds = %116, %4
  %48 = load i32, ptr %16, align 4, !tbaa !4
  %49 = icmp sge i32 %48, 2
  br i1 %49, label %51, label %50

50:                                               ; preds = %47
  call void @llvm.lifetime.end.p0(i64 4, ptr %16) #10
  br label %119

51:                                               ; preds = %47
  call void @llvm.lifetime.start.p0(i64 8, ptr %17) #10
  %52 = load ptr, ptr %10, align 8, !tbaa !38
  %53 = load i32, ptr %16, align 4, !tbaa !4
  %54 = sub nsw i32 %53, 0
  %55 = sext i32 %54 to i64
  %56 = getelementptr inbounds double, ptr %52, i64 %55
  %57 = load double, ptr %56, align 8, !tbaa !29
  store double %57, ptr %17, align 8, !tbaa !29
  call void @llvm.lifetime.start.p0(i64 8, ptr %18) #10
  %58 = load ptr, ptr %10, align 8, !tbaa !38
  %59 = load i32, ptr %16, align 4, !tbaa !4
  %60 = sub nsw i32 %59, 1
  %61 = sext i32 %60 to i64
  %62 = getelementptr inbounds double, ptr %58, i64 %61
  %63 = load double, ptr %62, align 8, !tbaa !29
  %64 = load ptr, ptr %10, align 8, !tbaa !38
  %65 = load i32, ptr %16, align 4, !tbaa !4
  %66 = add nsw i32 %65, 1
  %67 = sext i32 %66 to i64
  %68 = getelementptr inbounds double, ptr %64, i64 %67
  %69 = load double, ptr %68, align 8, !tbaa !29
  %70 = fsub nsz double %63, %69
  store double %70, ptr %18, align 8, !tbaa !29
  br label %71

71:                                               ; preds = %51
  %72 = load ptr, ptr %13, align 8, !tbaa !38
  %73 = load i32, ptr %11, align 4, !tbaa !4
  %74 = load i32, ptr %16, align 4, !tbaa !4
  %75 = sub nsw i32 %73, %74
  %76 = sext i32 %75 to i64
  %77 = getelementptr inbounds double, ptr %72, i64 %76
  %78 = load double, ptr %77, align 8, !tbaa !29
  %79 = load double, ptr %17, align 8, !tbaa !29
  %80 = load ptr, ptr %13, align 8, !tbaa !38
  %81 = load i32, ptr %16, align 4, !tbaa !4
  %82 = sext i32 %81 to i64
  %83 = getelementptr inbounds double, ptr %80, i64 %82
  %84 = load double, ptr %83, align 8, !tbaa !29
  %85 = load double, ptr %18, align 8, !tbaa !29
  %86 = fmul nsz double %84, %85
  %87 = fneg nsz double %86
  %88 = call nsz double @llvm.fmuladd.f64(double %78, double %79, double %87)
  %89 = load ptr, ptr %10, align 8, !tbaa !38
  %90 = load i32, ptr %16, align 4, !tbaa !4
  %91 = add nsw i32 %90, 1
  %92 = sext i32 %91 to i64
  %93 = getelementptr inbounds double, ptr %89, i64 %92
  store double %88, ptr %93, align 8, !tbaa !29
  %94 = load ptr, ptr %13, align 8, !tbaa !38
  %95 = load i32, ptr %11, align 4, !tbaa !4
  %96 = load i32, ptr %16, align 4, !tbaa !4
  %97 = sub nsw i32 %95, %96
  %98 = sext i32 %97 to i64
  %99 = getelementptr inbounds double, ptr %94, i64 %98
  %100 = load double, ptr %99, align 8, !tbaa !29
  %101 = load double, ptr %18, align 8, !tbaa !29
  %102 = load ptr, ptr %13, align 8, !tbaa !38
  %103 = load i32, ptr %16, align 4, !tbaa !4
  %104 = sext i32 %103 to i64
  %105 = getelementptr inbounds double, ptr %102, i64 %104
  %106 = load double, ptr %105, align 8, !tbaa !29
  %107 = load double, ptr %17, align 8, !tbaa !29
  %108 = fmul nsz double %106, %107
  %109 = call nsz double @llvm.fmuladd.f64(double %100, double %101, double %108)
  %110 = load ptr, ptr %10, align 8, !tbaa !38
  %111 = load i32, ptr %16, align 4, !tbaa !4
  %112 = sext i32 %111 to i64
  %113 = getelementptr inbounds double, ptr %110, i64 %112
  store double %109, ptr %113, align 8, !tbaa !29
  br label %114

114:                                              ; preds = %71
  br label %115

115:                                              ; preds = %114
  call void @llvm.lifetime.end.p0(i64 8, ptr %18) #10
  call void @llvm.lifetime.end.p0(i64 8, ptr %17) #10
  br label %116

116:                                              ; preds = %115
  %117 = load i32, ptr %16, align 4, !tbaa !4
  %118 = sub nsw i32 %117, 2
  store i32 %118, ptr %16, align 4, !tbaa !4
  br label %47, !llvm.loop !164

119:                                              ; preds = %50
  %120 = load ptr, ptr %5, align 8, !tbaa !17
  %121 = getelementptr inbounds nuw %struct.AVTXContext, ptr %120, i32 0, i32 6
  %122 = getelementptr inbounds [4 x ptr], ptr %121, i64 0, i64 0
  %123 = load ptr, ptr %122, align 8, !tbaa !8
  %124 = load ptr, ptr %5, align 8, !tbaa !17
  %125 = getelementptr inbounds nuw %struct.AVTXContext, ptr %124, i32 0, i32 5
  %126 = load ptr, ptr %125, align 8, !tbaa !67
  %127 = getelementptr inbounds %struct.AVTXContext, ptr %126, i64 0
  %128 = load ptr, ptr %9, align 8, !tbaa !38
  %129 = load ptr, ptr %10, align 8, !tbaa !38
  call void %123(ptr noundef %127, ptr noundef %128, ptr noundef %129, i64 noundef 4)
  call void @llvm.lifetime.start.p0(i64 4, ptr %19) #10
  store i32 0, ptr %19, align 4, !tbaa !4
  br label %130

130:                                              ; preds = %182, %119
  %131 = load i32, ptr %19, align 4, !tbaa !4
  %132 = load i32, ptr %12, align 4, !tbaa !4
  %133 = icmp slt i32 %131, %132
  br i1 %133, label %135, label %134

134:                                              ; preds = %130
  call void @llvm.lifetime.end.p0(i64 4, ptr %19) #10
  br label %185

135:                                              ; preds = %130
  call void @llvm.lifetime.start.p0(i64 8, ptr %20) #10
  %136 = load ptr, ptr %9, align 8, !tbaa !38
  %137 = load i32, ptr %19, align 4, !tbaa !4
  %138 = sext i32 %137 to i64
  %139 = getelementptr inbounds double, ptr %136, i64 %138
  %140 = load double, ptr %139, align 8, !tbaa !29
  store double %140, ptr %20, align 8, !tbaa !29
  call void @llvm.lifetime.start.p0(i64 8, ptr %21) #10
  %141 = load ptr, ptr %9, align 8, !tbaa !38
  %142 = load i32, ptr %11, align 4, !tbaa !4
  %143 = load i32, ptr %19, align 4, !tbaa !4
  %144 = sub nsw i32 %142, %143
  %145 = sub nsw i32 %144, 1
  %146 = sext i32 %145 to i64
  %147 = getelementptr inbounds double, ptr %141, i64 %146
  %148 = load double, ptr %147, align 8, !tbaa !29
  store double %148, ptr %21, align 8, !tbaa !29
  call void @llvm.lifetime.start.p0(i64 8, ptr %22) #10
  %149 = load ptr, ptr %13, align 8, !tbaa !38
  %150 = load i32, ptr %11, align 4, !tbaa !4
  %151 = load i32, ptr %19, align 4, !tbaa !4
  %152 = add nsw i32 %150, %151
  %153 = sext i32 %152 to i64
  %154 = getelementptr inbounds double, ptr %149, i64 %153
  %155 = load double, ptr %154, align 8, !tbaa !29
  store double %155, ptr %22, align 8, !tbaa !29
  %156 = load double, ptr %20, align 8, !tbaa !29
  %157 = load double, ptr %21, align 8, !tbaa !29
  %158 = fadd nsz double %156, %157
  store double %158, ptr %14, align 8, !tbaa !29
  %159 = load double, ptr %20, align 8, !tbaa !29
  %160 = load double, ptr %21, align 8, !tbaa !29
  %161 = fsub nsz double %159, %160
  store double %161, ptr %15, align 8, !tbaa !29
  %162 = load double, ptr %22, align 8, !tbaa !29
  %163 = load double, ptr %15, align 8, !tbaa !29
  %164 = fmul nsz double %163, %162
  store double %164, ptr %15, align 8, !tbaa !29
  %165 = load double, ptr %14, align 8, !tbaa !29
  %166 = load double, ptr %15, align 8, !tbaa !29
  %167 = fadd nsz double %165, %166
  %168 = load ptr, ptr %9, align 8, !tbaa !38
  %169 = load i32, ptr %19, align 4, !tbaa !4
  %170 = sext i32 %169 to i64
  %171 = getelementptr inbounds double, ptr %168, i64 %170
  store double %167, ptr %171, align 8, !tbaa !29
  %172 = load double, ptr %14, align 8, !tbaa !29
  %173 = load double, ptr %15, align 8, !tbaa !29
  %174 = fsub nsz double %172, %173
  %175 = load ptr, ptr %9, align 8, !tbaa !38
  %176 = load i32, ptr %11, align 4, !tbaa !4
  %177 = load i32, ptr %19, align 4, !tbaa !4
  %178 = sub nsw i32 %176, %177
  %179 = sub nsw i32 %178, 1
  %180 = sext i32 %179 to i64
  %181 = getelementptr inbounds double, ptr %175, i64 %180
  store double %174, ptr %181, align 8, !tbaa !29
  call void @llvm.lifetime.end.p0(i64 8, ptr %22) #10
  call void @llvm.lifetime.end.p0(i64 8, ptr %21) #10
  call void @llvm.lifetime.end.p0(i64 8, ptr %20) #10
  br label %182

182:                                              ; preds = %135
  %183 = load i32, ptr %19, align 4, !tbaa !4
  %184 = add nsw i32 %183, 1
  store i32 %184, ptr %19, align 4, !tbaa !4
  br label %130, !llvm.loop !165

185:                                              ; preds = %134
  call void @llvm.lifetime.end.p0(i64 8, ptr %15) #10
  call void @llvm.lifetime.end.p0(i64 8, ptr %14) #10
  call void @llvm.lifetime.end.p0(i64 8, ptr %13) #10
  call void @llvm.lifetime.end.p0(i64 4, ptr %12) #10
  call void @llvm.lifetime.end.p0(i64 4, ptr %11) #10
  call void @llvm.lifetime.end.p0(i64 8, ptr %10) #10
  call void @llvm.lifetime.end.p0(i64 8, ptr %9) #10
  ret void
}